; Function Attrs: mustprogress uwtable
define void @_ZN6icu_779SpoofImpl9constructER10UErrorCode(ptr noundef nonnull align 8 captures(none) dereferenceable(44) initializes((12, 44)) %0, ptr noundef nonnull align 4 captures(none) dereferenceable(4) %1) local_unnamed_addr #1 align 2 personality ptr @__gxx_personality_v0 {
  %3 = getelementptr inbounds nuw i8, ptr %0, i64 12
  store i32 65535, ptr %3, align 4, !tbaa !10
  %4 = getelementptr inbounds nuw i8, ptr %0, i64 16
  %5 = getelementptr inbounds nuw i8, ptr %0, i64 24
  %6 = getelementptr inbounds nuw i8, ptr %0, i64 32
  %7 = getelementptr inbounds nuw i8, ptr %0, i64 40
  tail call void @llvm.memset.p0.i64(ptr noundef nonnull align 8 dereferenceable(24) %4, i8 0, i64 24, i1 false)
  store i32 805306368, ptr %7, align 8, !tbaa !18
  %8 = load i32, ptr %1, align 4, !tbaa !19
  %9 = icmp slt i32 %8, 1
  br i1 %9, label %10, label %24

10:                                               ; preds = %2
  %11 = tail call noundef ptr @_ZN6icu_777UMemorynwEm(i64 noundef 200) #21
  %12 = icmp eq ptr %11, null
  br i1 %12, label %14, label %13

13:                                               ; preds = %10
  invoke void @_ZN6icu_7710UnicodeSetC1Eii(ptr noundef nonnull align 8 dereferenceable(200) %11, i32 noundef 0, i32 noundef 1114111)
          to label %14 unwind label %20

14:                                               ; preds = %13, %10
  store ptr %11, ptr %5, align 8, !tbaa !21
  %15 = tail call ptr @uprv_strdup_77(ptr noundef nonnull @.str)
  store ptr %15, ptr %6, align 8, !tbaa !22
  %16 = load ptr, ptr %5, align 8, !tbaa !21
  %17 = icmp eq ptr %16, null
  %18 = icmp eq ptr %15, null
  %or.cond = select i1 %17, i1 true, i1 %18
  br i1 %or.cond, label %19, label %22

19:                                               ; preds = %14
  store i32 7, ptr %1, align 4, !tbaa !19
  br label %24

20:                                               ; preds = %13
  %21 = landingpad { ptr, i32 }
          cleanup
  tail call void @_ZN6icu_777UMemorydlEPv(ptr noundef nonnull %11) #21
  resume { ptr, i32 } %21

22:                                               ; preds = %14
  %23 = tail call noundef ptr @_ZN6icu_7710UnicodeSet6freezeEv(ptr noundef nonnull align 8 dereferenceable(200) %11)
  br label %24

24:                                               ; preds = %19, %22, %2
  ret void
}